; Function Attrs: null_pointer_is_valid sspstrong uwtable
define internal i32 @netlogon_dissect_netrlogonsamlogonex_reply(ptr noundef %0, i32 noundef %1, ptr noundef %2, ptr noundef %3, ptr noundef %4, ptr noundef %5) #0 {
  %7 = alloca i32, align 4
  %8 = tail call i32 @dissect_ndr_pointer(ptr noundef %0, i32 noundef %1, ptr noundef %2, ptr noundef %3, ptr noundef %4, ptr noundef %5, ptr noundef nonnull @netlogon_dissect_VALIDATION, i32 noundef 1, ptr noundef nonnull @.str.1161, i32 noundef -1)
  %9 = load i32, ptr @hf_netlogon_authoritative, align 4
  %10 = tail call i32 @dissect_ndr_uint8(ptr noundef %0, i32 noundef %8, ptr noundef %2, ptr noundef %3, ptr noundef %4, ptr noundef %5, i32 noundef %9, ptr noundef null)
  call void @llvm.lifetime.start.p0(i64 4, ptr nonnull %7) #15
  %11 = getelementptr inbounds nuw i8, ptr %4, i64 25
  %12 = load i8, ptr %11, align 1, !range !6, !noundef !7
  %13 = trunc nuw i8 %12 to i1
  br i1 %13, label %netlogon_dissect_EXTRA_FLAGS.exit, label %14

14:                                               ; preds = %6
  %15 = call i32 @dissect_ndr_uint32(ptr noundef %0, i32 noundef %10, ptr noundef %2, ptr noundef null, ptr noundef %4, ptr noundef %5, i32 noundef -1, ptr noundef nonnull %7)
  %16 = add i32 %15, -4
  %17 = load i32, ptr @hf_netlogon_extraflags, align 4
  %18 = load i32, ptr @ett_trust_flags, align 4
  %19 = load i32, ptr %7, align 4
  %20 = zext i32 %19 to i64
  %21 = call ptr @proto_tree_add_bitmask_value_with_flags(ptr noundef %3, ptr noundef %0, i32 noundef %16, i32 noundef %17, i32 noundef %18, ptr noundef nonnull @netlogon_dissect_EXTRA_FLAGS.extraflags, i64 noundef %20, i32 noundef 1)
  br label %netlogon_dissect_EXTRA_FLAGS.exit

netlogon_dissect_EXTRA_FLAGS.exit:                ; preds = %6, %14
  %.0.i = phi i32 [ %15, %14 ], [ %10, %6 ]
  call void @llvm.lifetime.end.p0(i64 4, ptr nonnull %7) #15
  %22 = load i32, ptr @hf_netlogon_rc, align 4
  %23 = call i32 @dissect_ntstatus(ptr noundef %0, i32 noundef %.0.i, ptr noundef %2, ptr noundef %3, ptr noundef %4, ptr noundef %5, i32 noundef %22, ptr noundef null)
  ret i32 %23
}